Certificate:
    Data:
        Version: 3 (0x2)
        Serial Number: 1 (0x1)
        Signature Algorithm: sha256WithRSAEncryption
        Issuer: CN=devcert
        Validity
            Not Before: Apr 20 17:22:08 2020 GMT
            Not After : Jul 24 17:22:08 2022 GMT
        Subject: CN=localhost
        Subject Public Key Info:
            Public Key Algorithm: rsaEncryption
                RSA Public-Key: (2048 bit)
                Modulus:
                    00:bf:8a:46:f3:75:6d:ec:35:b7:d6:bc:8e:27:71:
                    4b:e7:f7:8d:9d:32:ec:f5:52:c2:dd:d7:ef:94:16:
                    ab:ad:9b:69:c8:01:a6:e4:8a:70:87:9a:d4:08:de:
                    b6:bb:40:27:15:ae:18:e1:84:a9:a5:1e:33:aa:9e:
                    0c:73:e4:11:c6:58:98:d6:e1:dd:9d:fa:a7:c9:99:
                    a7:a4:00:90:44:59:9c:18:c2:8b:15:2d:11:4a:ac:
                    f9:dd:47:03:06:13:2a:3f:45:3c:b4:6a:63:7e:85:
                    10:ad:cb:40:4d:7e:be:ca:ce:9f:d8:ff:51:24:e6:
                    2c:1a:56:4b:cc:51:35:12:79:10:ca:ea:42:1f:00:
                    2f:b3:ce:95:cf:14:ee:72:a1:99:69:cc:84:40:08:
                    cd:a9:1d:5e:0d:69:ee:44:52:61:48:84:bf:e0:29:
                    04:e1:34:2b:16:aa:d4:c5:e4:d4:bd:4c:8f:1e:ee:
                    4a:32:78:94:fc:2d:b1:ed:49:36:cd:1c:7e:02:8b:
                    1f:26:d3:65:e4:b3:0c:5a:aa:0c:05:6b:43:b3:c5:
                    0d:ca:52:0a:c9:89:ce:79:9d:79:e2:b8:06:3e:ae:
                    27:7b:54:76:65:f8:84:0f:20:59:26:6e:6c:b9:31:
                    c1:2f:1d:aa:1e:75:50:74:57:b3:21:8c:82:ec:cf:
                    aa:29
                Exponent: 65537 (0x10001)
        X509v3 extensions:
            X509v3 Basic Constraints: critical
                CA:FALSE
            X509v3 Subject Key Identifier: 
                EA:A7:D9:B4:D8:00:CD:56:36:A1:DF:8D:A9:08:37:3C:28:11:C9:D5
            X509v3 Authority Key Identifier: 
                keyid:B4:4E:22:D4:10:1D:F3:40:1F:31:32:58:EE:A5:4B:3C:C3:E6:0A:1C
                DirName:/CN=devcert
                serial:70:C1:BD:FA:56:A9:C0:63:A6:B5:CC:C3:B9:FB:9E:75:8F:B1:A2:72

            X509v3 Key Usage: critical
                Digital Signature, Key Encipherment
            X509v3 Extended Key Usage: 
                TLS Web Server Authentication
            X509v3 Subject Alternative Name: 
                DNS:localhost, DNS:*.localhost
    Signature Algorithm: sha256WithRSAEncryption
         8b:3d:f7:92:b2:6d:75:92:3f:87:25:cb:80:24:55:89:9f:35:
         a1:b9:00:88:17:62:25:f7:d9:cd:b6:1a:87:9a:cd:50:32:b8:
         66:ac:20:bb:fd:e7:ae:a3:24:c8:a2:9e:20:ab:23:a9:d7:3d:
         f9:c0:81:4b:fe:e6:9f:8e:f2:0b:ab:0d:cc:05:e0:55:d7:cc:
         9c:71:a7:39:2a:d1:2c:3d:75:5b:b2:83:6a:da:bd:6c:48:3a:
         5d:cf:86:57:e4:3a:65:48:12:f8:7c:37:c8:58:5a:da:2d:2d:
         e1:8f:a0:5f:7a:ba:78:9e:9b:20:5b:92:33:c1:db:f7:87:f0:
         d8:22:59:62:96:e0:b3:6a:18:38:5e:7f:bf:df:8f:39:9f:8c:
         c4:81:43:e2:8f:a2:25:ca:aa:36:23:ec:2e:c2:50:23:f2:5d:
         18:2e:11:bf:7f:61:c7:ee:84:77:79:32:54:45:b8:ec:ea:8e:
         9b:ea:6f:85:bf:8d:c5:0b:1f:97:17:79:96:03:15:46:08:19:
         42:a7:51:62:32:18:47:7f:ba:8b:40:2c:af:8d:0c:a8:b3:aa:
         f9:88:dc:62:71:77:48:04:24:28:96:39:c4:b3:a9:17:19:0d:
         21:45:cf:2d:7e:e9:fe:52:c3:9d:c2:a8:1a:f3:6e:da:6c:b3:
         07:e3:e7:46
-----BEGIN CERTIFICATE-----
MIIDaTCCAlGgAwIBAgIBATANBgkqhkiG9w0BAQsFADASMRAwDgYDVQQDDAdkZXZj
ZXJ0MB4XDTIwMDQyMDE3MjIwOFoXDTIyMDcyNDE3MjIwOFowFDESMBAGA1UEAwwJ
bG9jYWxob3N0MIIBIjANBgkqhkiG9w0BAQEFAAOCAQ8AMIIBCgKCAQEAv4pG83Vt
7DW31ryOJ3FL5/eNnTLs9VLC3dfvlBarrZtpyAGm5Ipwh5rUCN62u0AnFa4Y4YSp
pR4zqp4Mc+QRxliY1uHdnfqnyZmnpACQRFmcGMKLFS0RSqz53UcDBhMqP0U8tGpj
foUQrctATX6+ys6f2P9RJOYsGlZLzFE1EnkQyupCHwAvs86VzxTucqGZacyEQAjN
qR1eDWnuRFJhSIS/4CkE4TQrFqrUxeTUvUyPHu5KMniU/C2x7Uk2zRx+AosfJtNl
5LMMWqoMBWtDs8UNylIKyYnOeZ154rgGPq4ne1R2ZfiEDyBZJm5suTHBLx2qHnVQ
dFezIYyC7M+qKQIDAQABo4HHMIHEMAwGA1UdEwEB/wQCMAAwHQYDVR0OBBYEFOqn
2bTYAM1WNqHfjakINzwoEcnVME0GA1UdIwRGMESAFLROItQQHfNAHzEyWO6lSzzD
5gocoRakFDASMRAwDgYDVQQDDAdkZXZjZXJ0ghRwwb36VqnAY6a1zMO5+551j7Gi
cjAOBgNVHQ8BAf8EBAMCBaAwEwYDVR0lBAwwCgYIKwYBBQUHAwEwIQYDVR0RBBow
GIIJbG9jYWxob3N0ggsqLmxvY2FsaG9zdDANBgkqhkiG9w0BAQsFAAOCAQEAiz33
krJtdZI/hyXLgCRViZ81obkAiBdiJffZzbYah5rNUDK4Zqwgu/3nrqMkyKKeIKsj
qdc9+cCBS/7mn47yC6sNzAXgVdfMnHGnOSrRLD11W7KDatq9bEg6Xc+GV+Q6ZUgS
+Hw3yFha2i0t4Y+gX3q6eJ6bIFuSM8Hb94fw2CJZYpbgs2oYOF5/v9+POZ+MxIFD
4o+iJcqqNiPsLsJQI/JdGC4Rv39hx+6Ed3kyVEW47OqOm+pvhb+NxQsflxd5lgMV
RggZQqdRYjIYR3+6i0Asr40MqLOq+YjcYnF3SAQkKJY5xLOpFxkNIUXPLX7p/lLD
ncKoGvNu2myzB+PnRg==
-----END CERTIFICATE-----
